; Function Attrs: mustprogress uwtable
define void @_ZNK8facebook5velox10OpaqueType8toStringB5cxx11Ev(ptr noalias sret(%"class.std::__cxx11::basic_string") align 8 %agg.result, ptr nocapture noundef nonnull readonly align 8 dereferenceable(32) %this) unnamed_addr #0 align 2 personality ptr @__gxx_personality_v0 {
entry:
  %out = alloca %"class.std::__cxx11::basic_stringstream", align 8
  %ref.tmp = alloca %"class.folly::basic_fbstring", align 8
  call void @_ZNSt7__cxx1118basic_stringstreamIcSt11char_traitsIcESaIcEEC1Ev(ptr noundef nonnull align 8 dereferenceable(128) %out)
  %add.ptr = getelementptr inbounds i8, ptr %out, i64 16
  %call = invoke noundef nonnull align 8 dereferenceable(8) ptr @_ZStlsISt11char_traitsIcEERSt13basic_ostreamIcT_ES5_PKc(ptr noundef nonnull align 8 dereferenceable(8) %add.ptr, ptr noundef nonnull @.str.39)
          to label %invoke.cont unwind label %lpad

invoke.cont:                                      ; preds = %entry
  %typeIndex_ = getelementptr inbounds i8, ptr %this, i64 24
  %0 = load ptr, ptr %typeIndex_, align 8
  %__name.i.i = getelementptr inbounds i8, ptr %0, i64 8
  %1 = load ptr, ptr %__name.i.i, align 8
  %2 = load i8, ptr %1, align 1
  %cmp.i.i = icmp eq i8 %2, 42
  %cond.idx.i.i = zext i1 %cmp.i.i to i64
  %cond.i.i = getelementptr inbounds i8, ptr %1, i64 %cond.idx.i.i
  invoke void @_ZN5folly8demangleEPKc(ptr nonnull sret(%"class.folly::basic_fbstring") align 8 %ref.tmp, ptr noundef nonnull %cond.i.i)
          to label %invoke.cont3 unwind label %lpad

invoke.cont3:                                     ; preds = %invoke.cont
  %3 = load ptr, ptr %ref.tmp, align 8
  %arrayidx.i.i.i.i.i = getelementptr inbounds i8, ptr %ref.tmp, i64 23
  %4 = load i8, ptr %arrayidx.i.i.i.i.i, align 1
  %cmp.i.i.i.i = icmp ult i8 %4, 64
  %cond.i.i.i.i = select i1 %cmp.i.i.i.i, ptr %ref.tmp, ptr %3
  %size_.i.i.i = getelementptr inbounds i8, ptr %ref.tmp, i64 8
  %5 = load i64, ptr %size_.i.i.i, align 8
  %conv.i.i.i = zext i8 %4 to i64
  %sub.i.i.i = sub nsw i64 23, %conv.i.i.i
  %cmp.i.i.i = icmp ult i8 %4, 24
  %cond.i.i.i = select i1 %cmp.i.i.i, i64 %sub.i.i.i, i64 %5
  %call2.i2 = invoke noundef nonnull align 8 dereferenceable(8) ptr @_ZSt16__ostream_insertIcSt11char_traitsIcEERSt13basic_ostreamIT_T0_ES6_PKS3_l(ptr noundef nonnull align 8 dereferenceable(8) %call, ptr noundef %cond.i.i.i.i, i64 noundef %cond.i.i.i)
          to label %invoke.cont5 unwind label %lpad4

invoke.cont5:                                     ; preds = %invoke.cont3
  %call8 = invoke noundef nonnull align 8 dereferenceable(8) ptr @_ZStlsISt11char_traitsIcEERSt13basic_ostreamIcT_ES5_PKc(ptr noundef nonnull align 8 dereferenceable(8) %call, ptr noundef nonnull @.str.28)
          to label %invoke.cont7 unwind label %lpad4

invoke.cont7:                                     ; preds = %invoke.cont5
  %6 = load i8, ptr %arrayidx.i.i.i.i.i, align 1
  %7 = and i8 %6, -64
  %cmp.i.i3 = icmp eq i8 %7, 0
  br i1 %cmp.i.i3, label %_ZN5folly14basic_fbstringIcSt11char_traitsIcESaIcENS_13fbstring_coreIcEEED2Ev.exit, label %if.end.i.i

if.end.i.i:                                       ; preds = %invoke.cont7
  %cmp.i.i.i4 = icmp eq i8 %7, -128
  %8 = load ptr, ptr %ref.tmp, align 8
  br i1 %cmp.i.i.i4, label %if.then.i.i.i, label %if.else.i.i.i

if.then.i.i.i:                                    ; preds = %if.end.i.i
  call void @free(ptr noundef %8) #37
  br label %_ZN5folly14basic_fbstringIcSt11char_traitsIcESaIcENS_13fbstring_coreIcEEED2Ev.exit

if.else.i.i.i:                                    ; preds = %if.end.i.i
  %add.ptr.i.i.i.i.i = getelementptr inbounds i8, ptr %8, i64 -8
  %9 = atomicrmw sub ptr %add.ptr.i.i.i.i.i, i64 1 acq_rel, align 8
  %cmp.i.i.i.i5 = icmp eq i64 %9, 1
  br i1 %cmp.i.i.i.i5, label %if.then.i.i.i.i, label %_ZN5folly14basic_fbstringIcSt11char_traitsIcESaIcENS_13fbstring_coreIcEEED2Ev.exit

if.then.i.i.i.i:                                  ; preds = %if.else.i.i.i
  call void @free(ptr noundef nonnull %add.ptr.i.i.i.i.i) #37
  br label %_ZN5folly14basic_fbstringIcSt11char_traitsIcESaIcENS_13fbstring_coreIcEEED2Ev.exit

_ZN5folly14basic_fbstringIcSt11char_traitsIcESaIcENS_13fbstring_coreIcEEED2Ev.exit: ; preds = %invoke.cont7, %if.then.i.i.i, %if.else.i.i.i, %if.then.i.i.i.i
  invoke void @_ZNKSt7__cxx1118basic_stringstreamIcSt11char_traitsIcESaIcEE3strEv(ptr sret(%"class.std::__cxx11::basic_string") align 8 %agg.result, ptr noundef nonnull align 8 dereferenceable(128) %out)
          to label %invoke.cont9 unwind label %lpad

invoke.cont9:                                     ; preds = %_ZN5folly14basic_fbstringIcSt11char_traitsIcESaIcENS_13fbstring_coreIcEEED2Ev.exit
  call void @_ZNSt7__cxx1118basic_stringstreamIcSt11char_traitsIcESaIcEED1Ev(ptr noundef nonnull align 8 dereferenceable(128) %out) #37
  ret void

lpad:                                             ; preds = %_ZN5folly14basic_fbstringIcSt11char_traitsIcESaIcENS_13fbstring_coreIcEEED2Ev.exit, %invoke.cont, %entry
  %10 = landingpad { ptr, i32 }
          cleanup
  br label %ehcleanup

lpad4:                                            ; preds = %invoke.cont3, %invoke.cont5
  %11 = landingpad { ptr, i32 }
          cleanup
  call void @_ZN5folly14basic_fbstringIcSt11char_traitsIcESaIcENS_13fbstring_coreIcEEED2Ev(ptr noundef nonnull align 8 dereferenceable(24) %ref.tmp) #37
  br label %ehcleanup

ehcleanup:                                        ; preds = %lpad4, %lpad
  %.pn = phi { ptr, i32 } [ %10, %lpad ], [ %11, %lpad4 ]
  call void @_ZNSt7__cxx1118basic_stringstreamIcSt11char_traitsIcESaIcEED1Ev(ptr noundef nonnull align 8 dereferenceable(128) %out) #37
  resume { ptr, i32 } %.pn
}